target datalayout = "e-m:e-p270:32:32-p271:32:32-p272:64:64-i64:64-i128:128-f80:128-n8:16:32:64-S128"
target triple = "x86_64-pc-linux-gnu"

%struct._btatt_data_t = type { ptr, i8, i32 }

@hf_gatt_microbit_temperature_period = internal global i32 0, align 4

; Function Attrs: nounwind null_pointer_is_valid sspstrong uwtable
define internal zeroext i1 @is_readable_request(i8 noundef zeroext %0) #1 {
  %2 = alloca i8, align 1
  store i8 %0, ptr %2, align 1
  %3 = load i8, ptr %2, align 1
  %4 = zext i8 %3 to i32
  %5 = icmp eq i32 %4, 10
  br i1 %5, label %18, label %6

6:                                                ; preds = %1
  %7 = load i8, ptr %2, align 1
  %8 = zext i8 %7 to i32
  %9 = icmp eq i32 %8, 12
  br i1 %9, label %18, label %10

10:                                               ; preds = %6
  %11 = load i8, ptr %2, align 1
  %12 = zext i8 %11 to i32
  %13 = icmp eq i32 %12, 8
  br i1 %13, label %18, label %14

14:                                               ; preds = %10
  %15 = load i8, ptr %2, align 1
  %16 = zext i8 %15 to i32
  %17 = icmp eq i32 %16, 14
  br label %18

18:                                               ; preds = %14, %10, %6, %1
  %19 = phi i1 [ true, %10 ], [ true, %6 ], [ true, %1 ], [ %17, %14 ]
  ret i1 %19
}

; Function Attrs: null_pointer_is_valid sspstrong uwtable
define zeroext i1 @bluetooth_gatt_has_no_parameter(i8 noundef zeroext %0) #0 {
  %2 = alloca i8, align 1
  store i8 %0, ptr %2, align 1
  %3 = load i8, ptr %2, align 1
  %4 = call zeroext i1 @is_readable_request(i8 noundef zeroext %3)
  br i1 %4, label %13, label %5

5:                                                ; preds = %1
  %6 = load i8, ptr %2, align 1
  %7 = zext i8 %6 to i32
  %8 = icmp eq i32 %7, 19
  br i1 %8, label %13, label %9

9:                                                ; preds = %5
  %10 = load i8, ptr %2, align 1
  %11 = zext i8 %10 to i32
  %12 = icmp eq i32 %11, 30
  br label %13

13:                                               ; preds = %9, %5, %1
  %14 = phi i1 [ true, %5 ], [ true, %1 ], [ %12, %9 ]
  ret i1 %14
}

; Function Attrs: null_pointer_is_valid sspstrong uwtable
define internal i32 @dissect_btgatt_microbit_temperature_period(ptr noundef %0, ptr noundef %1, ptr noundef %2, ptr noundef %3) #0 {
  %5 = alloca i32, align 4
  %6 = alloca ptr, align 8
  %7 = alloca ptr, align 8
  %8 = alloca ptr, align 8
  %9 = alloca ptr, align 8
  %10 = alloca ptr, align 8
  %11 = alloca i32, align 4
  %12 = alloca i32, align 4
  store ptr %0, ptr %6, align 8
  store ptr %1, ptr %7, align 8
  store ptr %2, ptr %8, align 8
  store ptr %3, ptr %9, align 8
  call void @llvm.lifetime.start.p0(i64 8, ptr %10) #12
  %13 = load ptr, ptr %9, align 8
  store ptr %13, ptr %10, align 8
  call void @llvm.lifetime.start.p0(i64 4, ptr %11) #12
  store i32 0, ptr %11, align 4
  %14 = load ptr, ptr %10, align 8
  %15 = getelementptr inbounds nuw %struct._btatt_data_t, ptr %14, i32 0, i32 1
  %16 = load i8, ptr %15, align 8
  %17 = call zeroext i1 @bluetooth_gatt_has_no_parameter(i8 noundef zeroext %16)
  br i1 %17, label %18, label %19

18:                                               ; preds = %4
  store i32 -1, ptr %5, align 4
  store i32 1, ptr %12, align 4
  br label %28

19:                                               ; preds = %4
  %20 = load ptr, ptr %8, align 8
  %21 = load i32, ptr @hf_gatt_microbit_temperature_period, align 4
  %22 = load ptr, ptr %6, align 8
  %23 = load i32, ptr %11, align 4
  %24 = call ptr @proto_tree_add_item(ptr noundef %20, i32 noundef %21, ptr noundef %22, i32 noundef %23, i32 noundef 2, i32 noundef -2147483648)
  %25 = load i32, ptr %11, align 4
  %26 = add i32 %25, 2
  store i32 %26, ptr %11, align 4
  %27 = load i32, ptr %11, align 4
  store i32 %27, ptr %5, align 4
  store i32 1, ptr %12, align 4
  br label %28

28:                                               ; preds = %19, %18
  call void @llvm.lifetime.end.p0(i64 4, ptr %11) #12
  call void @llvm.lifetime.end.p0(i64 8, ptr %10) #12
  %29 = load i32, ptr %5, align 4
  ret i32 %29
}